; Function Attrs: nounwind sspstrong uwtable
define dso_local void @qtest_common_shutdown(ptr noundef %0) local_unnamed_addr #0 {
  %2 = getelementptr inbounds nuw i8, ptr %0, i64 64
  %3 = load ptr, ptr %2, align 8
  %.not = icmp eq ptr %3, null
  br i1 %.not, label %11, label %4

4:                                                ; preds = %1
  %5 = getelementptr inbounds nuw i8, ptr %0, i64 56
  %6 = load ptr, ptr %5, align 8
  %.not11 = icmp eq ptr %6, null
  br i1 %.not11, label %11, label %7

7:                                                ; preds = %4
  %8 = getelementptr inbounds nuw i8, ptr %3, i64 16
  %9 = load ptr, ptr %8, align 8
  %.not12 = icmp eq ptr %9, null
  br i1 %.not12, label %11, label %10

10:                                               ; preds = %7
  tail call void %9(ptr noundef nonnull %6) #13
  store ptr null, ptr %5, align 8
  br label %11

11:                                               ; preds = %4, %7, %10, %1
  %12 = getelementptr inbounds nuw i8, ptr %0, i64 8
  tail call void @alloc_destroy(ptr noundef nonnull %12) #13
  %13 = load ptr, ptr %0, align 8
  tail call void @qtest_quit(ptr noundef %13) #13
  tail call void @g_free(ptr noundef nonnull %0) #13
  ret void
}